; Function Attrs: mustprogress uwtable
define noundef i32 @_ZNK2cv8FileNodecviEv(ptr noundef nonnull readonly align 8 captures(none) dereferenceable(24) %0) local_unnamed_addr #25 align 2 {
  %2 = load ptr, ptr %0, align 8, !tbaa !250
  %.not.i = icmp eq ptr %2, null
  br i1 %.not.i, label %_ZNK2cv8FileNode3ptrEv.exit.thread, label %_ZNK2cv8FileNode3ptrEv.exit

_ZNK2cv8FileNode3ptrEv.exit:                      ; preds = %1
  %3 = getelementptr inbounds nuw i8, ptr %0, i64 8
  %4 = load i64, ptr %3, align 8, !tbaa !253
  %5 = getelementptr inbounds nuw i8, ptr %0, i64 16
  %6 = load i64, ptr %5, align 8, !tbaa !254
  %7 = tail call noundef ptr @_ZNK2cv11FileStorage4Impl10getNodePtrEmm(ptr noundef nonnull align 8 dereferenceable(700) %2, i64 noundef %4, i64 noundef %6)
  %.not = icmp eq ptr %7, null
  br i1 %.not, label %_ZNK2cv8FileNode3ptrEv.exit.thread, label %8

8:                                                ; preds = %_ZNK2cv8FileNode3ptrEv.exit
  %9 = load i8, ptr %7, align 1, !tbaa !5
  %10 = zext i8 %9 to i32
  %11 = and i32 %10, 7
  %12 = and i32 %10, 32
  %.not12 = icmp eq i32 %12, 0
  %13 = select i1 %.not12, i64 1, i64 5
  %14 = getelementptr inbounds nuw i8, ptr %7, i64 %13
  switch i32 %11, label %_ZNK2cv8FileNode3ptrEv.exit.thread [
    i32 1, label %15
    i32 2, label %16
  ]

15:                                               ; preds = %8
  %.val = load i32, ptr %14, align 1
  br label %_ZNK2cv8FileNode3ptrEv.exit.thread

16:                                               ; preds = %8
  %.val13 = load double, ptr %14, align 1
  %17 = insertelement <2 x double> poison, double %.val13, i64 0
  %18 = tail call noundef i32 @llvm.x86.sse2.cvtsd2si(<2 x double> %17)
  br label %_ZNK2cv8FileNode3ptrEv.exit.thread

_ZNK2cv8FileNode3ptrEv.exit.thread:               ; preds = %1, %15, %16, %8, %_ZNK2cv8FileNode3ptrEv.exit
  %.0 = phi i32 [ 0, %_ZNK2cv8FileNode3ptrEv.exit ], [ %.val, %15 ], [ %18, %16 ], [ 2147483647, %8 ], [ 0, %1 ]
  ret i32 %.0
}